Certificate:
    Data:
        Version: 3 (0x2)
        Serial Number: 1 (0x1)
    Signature Algorithm: sha256WithRSAEncryption
        Issuer: CN=stephen-easy-rsa-ca
        Validity
            Not Before: Feb  2 18:40:43 2017 GMT
            Not After : Jan 31 18:40:43 2027 GMT
        Subject: CN=greed.cult
        Subject Public Key Info:
            Public Key Algorithm: rsaEncryption
                Public-Key: (2048 bit)
                Modulus:
                    00:c3:f4:54:d0:11:07:27:bc:96:28:56:b1:c5:e2:
                    48:ba:eb:d4:9a:65:8d:57:1f:54:7b:4e:b4:97:77:
                    ce:5b:bb:96:04:a8:b3:af:6f:c6:78:e5:32:0e:74:
                    71:2b:2c:fc:0c:38:79:60:9a:59:d2:17:88:dc:cf:
                    0d:f9:37:52:e6:be:25:70:5e:e8:61:88:b4:82:29:
                    f6:cf:39:28:70:4a:ae:21:d9:1d:98:f8:1e:a2:aa:
                    13:0d:b1:10:b8:b0:2f:08:4d:c1:ed:27:3b:41:64:
                    01:49:98:f5:bd:0b:0c:0b:89:d0:cd:52:12:77:93:
                    2a:1b:d1:00:78:62:f2:c3:e8:6d:20:b7:35:7f:0c:
                    2e:52:8a:75:32:fa:7f:aa:25:d7:12:8c:71:ce:b1:
                    10:b0:f2:65:d1:12:0f:4a:85:fc:dc:87:67:9b:53:
                    15:be:ac:75:b4:cf:48:23:d6:47:b5:f8:b8:40:8e:
                    75:83:89:41:a9:9b:0d:30:05:c3:be:d9:bb:29:56:
                    3c:05:77:06:07:cd:b8:09:ec:72:fe:35:cc:19:a6:
                    57:0a:da:56:a0:65:1e:d9:0d:a1:d7:39:8c:dc:3d:
                    08:2a:67:f6:df:8a:4f:99:41:71:6a:d1:8a:71:69:
                    1a:96:e3:e8:5d:79:05:85:8f:83:38:91:1e:e8:18:
                    0b:c3
                Exponent: 65537 (0x10001)
        X509v3 extensions:
            X509v3 Basic Constraints: 
                CA:FALSE
            X509v3 Subject Key Identifier: 
                1C:CC:99:26:38:E0:90:12:3F:5E:DA:91:B9:09:A6:C8:B3:6C:F3:A6
            X509v3 Authority Key Identifier: 
                keyid:E9:93:F7:66:7C:42:EF:BE:76:D3:CF:02:E7:6C:A7:BD:4C:86:43:41
                DirName:/CN=stephen-easy-rsa-ca
                serial:A9:F7:76:BC:D1:6C:B2:B4

            X509v3 Extended Key Usage: 
                TLS Web Server Authentication
            X509v3 Key Usage: 
                Digital Signature, Key Encipherment
    Signature Algorithm: sha256WithRSAEncryption
         4f:0a:74:ea:e7:cf:3f:f6:89:c4:50:3d:b2:ba:69:96:08:d2:
         60:31:00:48:7b:25:e7:98:5c:7b:73:81:7d:c6:d8:ca:f9:ca:
         a7:e5:5c:47:eb:2a:d9:73:0b:4e:05:12:06:33:1d:92:99:3a:
         14:55:c3:b8:43:e6:24:b7:16:13:e0:08:3e:57:73:2c:fa:91:
         88:ad:24:3c:e5:0c:5f:d6:aa:9c:30:41:07:00:e5:70:e8:6c:
         21:1a:50:38:68:43:e0:45:8d:21:30:e9:be:a3:5c:f5:0d:95:
         a5:04:10:77:4e:23:26:c0:bb:c8:48:9a:f9:e6:2b:81:06:32:
         01:ed:9e:cb:bf:82:4c:24:20:25:9d:68:0c:85:4a:cc:8a:dc:
         35:54:74:a4:67:19:c5:96:ad:db:e2:95:b3:dc:11:c1:dc:1b:
         bf:80:65:5c:5a:fe:52:49:d5:f1:a3:58:53:ef:26:f3:2d:67:
         85:1b:25:a0:c9:64:8a:cc:65:42:f1:e2:9b:68:2c:5f:3f:4b:
         bf:36:20:ba:78:3d:88:9a:97:ff:54:7a:81:41:61:fa:a5:1c:
         60:c3:31:2e:01:26:1f:5b:06:a6:7e:cc:55:6a:f1:1c:97:3e:
         25:c8:c4:28:b0:f8:c8:3f:10:5f:8d:ac:89:78:ca:c6:e2:c7:
         6e:97:30:54
-----BEGIN CERTIFICATE-----
MIIDTjCCAjagAwIBAgIBATANBgkqhkiG9w0BAQsFADAeMRwwGgYDVQQDDBNzdGVw
aGVuLWVhc3ktcnNhLWNhMB4XDTE3MDIwMjE4NDA0M1oXDTI3MDEzMTE4NDA0M1ow
FTETMBEGA1UEAwwKZ3JlZWQuY3VsdDCCASIwDQYJKoZIhvcNAQEBBQADggEPADCC
AQoCggEBAMP0VNARBye8lihWscXiSLrr1JpljVcfVHtOtJd3zlu7lgSos69vxnjl
Mg50cSss/Aw4eWCaWdIXiNzPDfk3Uua+JXBe6GGItIIp9s85KHBKriHZHZj4HqKq
Ew2xELiwLwhNwe0nO0FkAUmY9b0LDAuJ0M1SEneTKhvRAHhi8sPobSC3NX8MLlKK
dTL6f6ol1xKMcc6xELDyZdESD0qF/NyHZ5tTFb6sdbTPSCPWR7X4uECOdYOJQamb
DTAFw77ZuylWPAV3BgfNuAnscv41zBmmVwraVqBlHtkNodc5jNw9CCpn9t+KT5lB
cWrRinFpGpbj6F15BYWPgziRHugYC8MCAwEAAaOBnzCBnDAJBgNVHRMEAjAAMB0G
A1UdDgQWBBQczJkmOOCQEj9e2pG5CabIs2zzpjBOBgNVHSMERzBFgBTpk/dmfELv
vnbTzwLnbKe9TIZDQaEipCAwHjEcMBoGA1UEAwwTc3RlcGhlbi1lYXN5LXJzYS1j
YYIJAKn3drzRbLK0MBMGA1UdJQQMMAoGCCsGAQUFBwMBMAsGA1UdDwQEAwIFoDAN
BgkqhkiG9w0BAQsFAAOCAQEATwp06ufPP/aJxFA9srpplgjSYDEASHsl55hce3OB
fcbYyvnKp+VcR+sq2XMLTgUSBjMdkpk6FFXDuEPmJLcWE+AIPldzLPqRiK0kPOUM
X9aqnDBBBwDlcOhsIRpQOGhD4EWNITDpvqNc9Q2VpQQQd04jJsC7yEia+eYrgQYy
Ae2ey7+CTCQgJZ1oDIVKzIrcNVR0pGcZxZat2+KVs9wRwdwbv4BlXFr+UknV8aNY
U+8m8y1nhRsloMlkisxlQvHim2gsXz9LvzYgung9iJqX/1R6gUFh+qUcYMMxLgEm
H1sGpn7MVWrxHJc+JcjEKLD4yD8QX42siXjKxuLHbpcwVA==
-----END CERTIFICATE-----
